; Function Attrs: mustprogress nounwind uwtable
define dso_local noalias ptr @LLVMGetTargetMachineTriple(ptr noundef %0) local_unnamed_addr #0 {
  %2 = alloca %"class.std::__cxx11::basic_string", align 8
  %3 = getelementptr inbounds nuw i8, ptr %0, i64 528
  call void @_ZNSt7__cxx1112basic_stringIcSt11char_traitsIcESaIcEEC1ERKS4_(ptr noundef nonnull align 8 dereferenceable(32) %2, ptr noundef nonnull align 8 dereferenceable(32) %3) #15
  %4 = call noundef ptr @_ZNKSt7__cxx1112basic_stringIcSt11char_traitsIcESaIcEE5c_strEv(ptr noundef nonnull align 8 dereferenceable(32) %2) #15
  %5 = call noalias ptr @strdup(ptr noundef %4) #15
  call void @_ZNSt7__cxx1112basic_stringIcSt11char_traitsIcESaIcEED1Ev(ptr noundef nonnull align 8 dereferenceable(32) %2) #15
  ret ptr %5
}